; ModuleID = '35/25.c'
source_filename = "35/25.c"
target datalayout = "e-m:e-p270:32:32-p271:32:32-p272:64:64-i64:64-f80:128-n8:16:32:64-S128"
target triple = "x86_64-pc-linux-gnu"

@.str = private unnamed_addr constant [6 x i8] c"%d,%d\00", align 1
@.str.1 = private unnamed_addr constant [3 x i8] c"%d\00", align 1
@.str.2 = private unnamed_addr constant [6 x i8] c"%d+%d\00", align 1
@.str.3 = private unnamed_addr constant [3 x i8] c"No\00", align 1

; Function Attrs: noinline nounwind uwtable
define dso_local void @main() #0 {
  %1 = alloca i32, align 4
  %2 = alloca i32, align 4
  %3 = alloca i32, align 4
  %4 = alloca i32, align 4
  %5 = alloca i32, align 4
  %6 = alloca i32, align 4
  %7 = alloca [9 x [9 x i32]], align 16
  %8 = alloca i32, align 4
  store i32 1, i32* %8, align 4
  %9 = call i32 (i8*, ...) @__isoc99_scanf(i8* getelementptr inbounds ([6 x i8], [6 x i8]* @.str, i64 0, i64 0), i32* %5, i32* %6)
  store i32 0, i32* %1, align 4
  br label %10

10:                                               ; preds = %31, %0
  %11 = load i32, i32* %1, align 4
  %12 = load i32, i32* %5, align 4
  %13 = icmp slt i32 %11, %12
  br i1 %13, label %14, label %34

14:                                               ; preds = %10
  store i32 0, i32* %2, align 4
  br label %15

15:                                               ; preds = %27, %14
  %16 = load i32, i32* %2, align 4
  %17 = load i32, i32* %6, align 4
  %18 = icmp slt i32 %16, %17
  br i1 %18, label %19, label %30

19:                                               ; preds = %15
  %20 = load i32, i32* %1, align 4
  %21 = sext i32 %20 to i64
  %22 = getelementptr inbounds [9 x [9 x i32]], [9 x [9 x i32]]* %7, i64 0, i64 %21
  %23 = load i32, i32* %2, align 4
  %24 = sext i32 %23 to i64
  %25 = getelementptr inbounds [9 x i32], [9 x i32]* %22, i64 0, i64 %24
  %26 = call i32 (i8*, ...) @__isoc99_scanf(i8* getelementptr inbounds ([3 x i8], [3 x i8]* @.str.1, i64 0, i64 0), i32* %25)
  br label %27

27:                                               ; preds = %19
  %28 = load i32, i32* %2, align 4
  %29 = add nsw i32 %28, 1
  store i32 %29, i32* %2, align 4
  br label %15

30:                                               ; preds = %15
  br label %31

31:                                               ; preds = %30
  %32 = load i32, i32* %1, align 4
  %33 = add nsw i32 %32, 1
  store i32 %33, i32* %1, align 4
  br label %10

34:                                               ; preds = %10
  store i32 0, i32* %1, align 4
  br label %35

35:                                               ; preds = %130, %34
  %36 = load i32, i32* %1, align 4
  %37 = load i32, i32* %5, align 4
  %38 = icmp slt i32 %36, %37
  br i1 %38, label %39, label %133

39:                                               ; preds = %35
  store i32 0, i32* %2, align 4
  br label %40

40:                                               ; preds = %126, %39
  %41 = load i32, i32* %2, align 4
  %42 = load i32, i32* %6, align 4
  %43 = icmp slt i32 %41, %42
  br i1 %43, label %44, label %129

44:                                               ; preds = %40
  %45 = load i32, i32* %8, align 4
  %46 = icmp ne i32 %45, 2
  br i1 %46, label %47, label %48

47:                                               ; preds = %44
  store i32 1, i32* %8, align 4
  br label %48

48:                                               ; preds = %47, %44
  store i32 0, i32* %4, align 4
  br label %49

49:                                               ; preds = %80, %48
  %50 = load i32, i32* %4, align 4
  %51 = load i32, i32* %6, align 4
  %52 = icmp slt i32 %50, %51
  br i1 %52, label %53, label %83

53:                                               ; preds = %49
  %54 = load i32, i32* %4, align 4
  %55 = load i32, i32* %2, align 4
  %56 = icmp eq i32 %54, %55
  br i1 %56, label %57, label %58

57:                                               ; preds = %53
  br label %80

58:                                               ; preds = %53
  %59 = load i32, i32* %8, align 4
  %60 = icmp eq i32 %59, 1
  br i1 %60, label %61, label %79

61:                                               ; preds = %58
  %62 = load i32, i32* %1, align 4
  %63 = sext i32 %62 to i64
  %64 = getelementptr inbounds [9 x [9 x i32]], [9 x [9 x i32]]* %7, i64 0, i64 %63
  %65 = load i32, i32* %2, align 4
  %66 = sext i32 %65 to i64
  %67 = getelementptr inbounds [9 x i32], [9 x i32]* %64, i64 0, i64 %66
  %68 = load i32, i32* %67, align 4
  %69 = load i32, i32* %1, align 4
  %70 = sext i32 %69 to i64
  %71 = getelementptr inbounds [9 x [9 x i32]], [9 x [9 x i32]]* %7, i64 0, i64 %70
  %72 = load i32, i32* %4, align 4
  %73 = sext i32 %72 to i64
  %74 = getelementptr inbounds [9 x i32], [9 x i32]* %71, i64 0, i64 %73
  %75 = load i32, i32* %74, align 4
  %76 = icmp sgt i32 %68, %75
  %77 = zext i1 %76 to i64
  %78 = select i1 %76, i32 1, i32 0
  store i32 %78, i32* %8, align 4
  br label %79

79:                                               ; preds = %61, %58
  br label %80

80:                                               ; preds = %79, %57
  %81 = load i32, i32* %4, align 4
  %82 = add nsw i32 %81, 1
  store i32 %82, i32* %4, align 4
  br label %49

83:                                               ; preds = %49
  store i32 0, i32* %3, align 4
  br label %84

84:                                               ; preds = %115, %83
  %85 = load i32, i32* %3, align 4
  %86 = load i32, i32* %5, align 4
  %87 = icmp slt i32 %85, %86
  br i1 %87, label %88, label %118

88:                                               ; preds = %84
  %89 = load i32, i32* %1, align 4
  %90 = load i32, i32* %3, align 4
  %91 = icmp eq i32 %89, %90
  br i1 %91, label %92, label %93

92:                                               ; preds = %88
  br label %115

93:                                               ; preds = %88
  %94 = load i32, i32* %8, align 4
  %95 = icmp eq i32 %94, 1
  br i1 %95, label %96, label %114

96:                                               ; preds = %93
  %97 = load i32, i32* %1, align 4
  %98 = sext i32 %97 to i64
  %99 = getelementptr inbounds [9 x [9 x i32]], [9 x [9 x i32]]* %7, i64 0, i64 %98
  %100 = load i32, i32* %2, align 4
  %101 = sext i32 %100 to i64
  %102 = getelementptr inbounds [9 x i32], [9 x i32]* %99, i64 0, i64 %101
  %103 = load i32, i32* %102, align 4
  %104 = load i32, i32* %3, align 4
  %105 = sext i32 %104 to i64
  %106 = getelementptr inbounds [9 x [9 x i32]], [9 x [9 x i32]]* %7, i64 0, i64 %105
  %107 = load i32, i32* %2, align 4
  %108 = sext i32 %107 to i64
  %109 = getelementptr inbounds [9 x i32], [9 x i32]* %106, i64 0, i64 %108
  %110 = load i32, i32* %109, align 4
  %111 = icmp slt i32 %103, %110
  %112 = zext i1 %111 to i64
  %113 = select i1 %111, i32 1, i32 0
  store i32 %113, i32* %8, align 4
  br label %114

114:                                              ; preds = %96, %93
  br label %115

115:                                              ; preds = %114, %92
  %116 = load i32, i32* %3, align 4
  %117 = add nsw i32 %116, 1
  store i32 %117, i32* %3, align 4
  br label %84

118:                                              ; preds = %84
  %119 = load i32, i32* %8, align 4
  %120 = icmp eq i32 %119, 1
  br i1 %120, label %121, label %125

121:                                              ; preds = %118
  %122 = load i32, i32* %1, align 4
  %123 = load i32, i32* %2, align 4
  %124 = call i32 (i8*, ...) @printf(i8* getelementptr inbounds ([6 x i8], [6 x i8]* @.str.2, i64 0, i64 0), i32 %122, i32 %123)
  store i32 2, i32* %8, align 4
  br label %125

125:                                              ; preds = %121, %118
  br label %126

126:                                              ; preds = %125
  %127 = load i32, i32* %2, align 4
  %128 = add nsw i32 %127, 1
  store i32 %128, i32* %2, align 4
  br label %40

129:                                              ; preds = %40
  br label %130

130:                                              ; preds = %129
  %131 = load i32, i32* %1, align 4
  %132 = add nsw i32 %131, 1
  store i32 %132, i32* %1, align 4
  br label %35

133:                                              ; preds = %35
  %134 = load i32, i32* %8, align 4
  %135 = icmp eq i32 %134, 0
  br i1 %135, label %136, label %138

136:                                              ; preds = %133
  %137 = call i32 (i8*, ...) @printf(i8* getelementptr inbounds ([3 x i8], [3 x i8]* @.str.3, i64 0, i64 0))
  br label %138

138:                                              ; preds = %136, %133
  ret void
}

declare dso_local i32 @__isoc99_scanf(i8*, ...) #1

declare dso_local i32 @printf(i8*, ...) #1


!llvm.module.flags = !{!0}
!llvm.ident = !{!1}

!0 = !{i32 1, !"wchar_size", i32 4}
!1 = !{!"clang version 10.0.0-4ubuntu1 "}
